target datalayout = "e-m:e-p270:32:32-p271:32:32-p272:64:64-i64:64-i128:128-f80:128-n8:16:32:64-S128"
target triple = "x86_64-pc-linux-gnu"

%struct.gmx_multisim_t = type { i32, i32, ptr, ptr }

@.str.1 = private unnamed_addr constant [131 x i8] c"generated/home/dtcxzyw/WorkSpace/Projects/compilers/llvm-opt-benchmark/bench/gromacs/gromacs/src/gromacs/mdrun/replicaexchange.cpp\00", align 1
@TMPI_BYTE = external constant ptr, align 8
@.str.101 = private unnamed_addr constant [4 x i8] c"buf\00", align 1

; Function Attrs: inlinehint mustprogress uwtable
define internal void @_ZL14gmx_sfree_implIdEvPKcS1_iPT_(ptr noundef %0, ptr noundef %1, i32 noundef %2, ptr noundef %3) #7 {
  %5 = alloca ptr, align 8
  %6 = alloca ptr, align 8
  %7 = alloca i32, align 4
  %8 = alloca ptr, align 8
  store ptr %0, ptr %5, align 8, !tbaa !182
  store ptr %1, ptr %6, align 8, !tbaa !182
  store i32 %2, ptr %7, align 4, !tbaa !11
  store ptr %3, ptr %8, align 8, !tbaa !515
  %9 = load ptr, ptr %5, align 8, !tbaa !182
  %10 = load ptr, ptr %6, align 8, !tbaa !182
  %11 = load i32, ptr %7, align 4, !tbaa !11
  %12 = load ptr, ptr %8, align 8, !tbaa !515
  call void @_Z9save_freePKcS0_iPv(ptr noundef %9, ptr noundef %10, i32 noundef %11, ptr noundef %12)
  ret void
}

; Function Attrs: inlinehint mustprogress uwtable
define internal void @_ZL13gmx_snew_implIdEvPKcS1_iRPT_m(ptr noundef %0, ptr noundef %1, i32 noundef %2, ptr noundef nonnull align 8 dereferenceable(8) %3, i64 noundef %4) #7 {
  %6 = alloca ptr, align 8
  %7 = alloca ptr, align 8
  %8 = alloca i32, align 4
  %9 = alloca ptr, align 8
  %10 = alloca i64, align 8
  store ptr %0, ptr %6, align 8, !tbaa !182
  store ptr %1, ptr %7, align 8, !tbaa !182
  store i32 %2, ptr %8, align 4, !tbaa !11
  store ptr %3, ptr %9, align 8, !tbaa !518
  store i64 %4, ptr %10, align 8, !tbaa !188
  %11 = load ptr, ptr %6, align 8, !tbaa !182
  %12 = load ptr, ptr %7, align 8, !tbaa !182
  %13 = load i32, ptr %8, align 4, !tbaa !11
  %14 = load i64, ptr %10, align 8, !tbaa !188
  %15 = call noundef ptr @_Z11save_callocPKcS0_imm(ptr noundef %11, ptr noundef %12, i32 noundef %13, i64 noundef %14, i64 noundef 8)
  %16 = load ptr, ptr %9, align 8, !tbaa !518
  store ptr %15, ptr %16, align 8, !tbaa !515
  ret void
}

; Function Attrs: mustprogress uwtable
define internal void @_ZL16exchange_doublesPK14gmx_multisim_tiPdi(ptr noundef %0, i32 noundef %1, ptr noundef %2, i32 noundef %3) #0 {
  %5 = alloca ptr, align 8
  %6 = alloca i32, align 4
  %7 = alloca ptr, align 8
  %8 = alloca i32, align 4
  %9 = alloca ptr, align 8
  %10 = alloca i32, align 4
  %11 = alloca ptr, align 8
  store ptr %0, ptr %5, align 8, !tbaa !9
  store i32 %1, ptr %6, align 4, !tbaa !11
  store ptr %2, ptr %7, align 8, !tbaa !515
  store i32 %3, ptr %8, align 4, !tbaa !11
  call void @llvm.lifetime.start.p0(i64 8, ptr %9) #17
  call void @llvm.lifetime.start.p0(i64 4, ptr %10) #17
  %12 = load ptr, ptr %7, align 8, !tbaa !515
  %13 = icmp ne ptr %12, null
  br i1 %13, label %14, label %59

14:                                               ; preds = %4
  %15 = load i32, ptr %8, align 4, !tbaa !11
  %16 = sext i32 %15 to i64
  call void @_ZL13gmx_snew_implIdEvPKcS1_iRPT_m(ptr noundef @.str.101, ptr noundef @.str.1, i32 noundef 567, ptr noundef nonnull align 8 dereferenceable(8) %9, i64 noundef %16)
  call void @llvm.lifetime.start.p0(i64 8, ptr %11) #17
  %17 = load ptr, ptr %7, align 8, !tbaa !515
  %18 = load i32, ptr %8, align 4, !tbaa !11
  %19 = sext i32 %18 to i64
  %20 = mul i64 %19, 8
  %21 = trunc i64 %20 to i32
  %22 = load ptr, ptr @TMPI_BYTE, align 8, !tbaa !290
  %23 = load i32, ptr %6, align 4, !tbaa !11
  %24 = load ptr, ptr %5, align 8, !tbaa !9
  %25 = getelementptr inbounds nuw %struct.gmx_multisim_t, ptr %24, i32 0, i32 2
  %26 = load ptr, ptr %25, align 8, !tbaa !512
  %27 = call noundef i32 @_Z10tMPI_IsendPKviP14tmpi_datatype_iiP10tmpi_comm_PP9tmpi_req_(ptr noundef %17, i32 noundef %21, ptr noundef %22, i32 noundef %23, i32 noundef 0, ptr noundef %26, ptr noundef %11)
  %28 = load ptr, ptr %9, align 8, !tbaa !515
  %29 = load i32, ptr %8, align 4, !tbaa !11
  %30 = sext i32 %29 to i64
  %31 = mul i64 %30, 8
  %32 = trunc i64 %31 to i32
  %33 = load ptr, ptr @TMPI_BYTE, align 8, !tbaa !290
  %34 = load i32, ptr %6, align 4, !tbaa !11
  %35 = load ptr, ptr %5, align 8, !tbaa !9
  %36 = getelementptr inbounds nuw %struct.gmx_multisim_t, ptr %35, i32 0, i32 2
  %37 = load ptr, ptr %36, align 8, !tbaa !512
  %38 = call noundef i32 @_Z9tMPI_RecvPviP14tmpi_datatype_iiP10tmpi_comm_P12tmpi_status_(ptr noundef %28, i32 noundef %32, ptr noundef %33, i32 noundef %34, i32 noundef 0, ptr noundef %37, ptr noundef null)
  %39 = call noundef i32 @_Z9tMPI_WaitPP9tmpi_req_P12tmpi_status_(ptr noundef %11, ptr noundef null)
  call void @llvm.lifetime.end.p0(i64 8, ptr %11) #17
  store i32 0, ptr %10, align 4, !tbaa !11
  br label %40

40:                                               ; preds = %54, %14
  %41 = load i32, ptr %10, align 4, !tbaa !11
  %42 = load i32, ptr %8, align 4, !tbaa !11
  %43 = icmp slt i32 %41, %42
  br i1 %43, label %44, label %57

44:                                               ; preds = %40
  %45 = load ptr, ptr %9, align 8, !tbaa !515
  %46 = load i32, ptr %10, align 4, !tbaa !11
  %47 = sext i32 %46 to i64
  %48 = getelementptr inbounds double, ptr %45, i64 %47
  %49 = load double, ptr %48, align 8, !tbaa !377
  %50 = load ptr, ptr %7, align 8, !tbaa !515
  %51 = load i32, ptr %10, align 4, !tbaa !11
  %52 = sext i32 %51 to i64
  %53 = getelementptr inbounds double, ptr %50, i64 %52
  store double %49, ptr %53, align 8, !tbaa !377
  br label %54

54:                                               ; preds = %44
  %55 = load i32, ptr %10, align 4, !tbaa !11
  %56 = add nsw i32 %55, 1
  store i32 %56, ptr %10, align 4, !tbaa !11
  br label %40, !llvm.loop !516

57:                                               ; preds = %40
  %58 = load ptr, ptr %9, align 8, !tbaa !515
  call void @_ZL14gmx_sfree_implIdEvPKcS1_iPT_(ptr noundef @.str.101, ptr noundef @.str.1, i32 noundef 586, ptr noundef %58)
  br label %59

59:                                               ; preds = %57, %4
  call void @llvm.lifetime.end.p0(i64 4, ptr %10) #17
  call void @llvm.lifetime.end.p0(i64 8, ptr %9) #17
  ret void
}